; Function Attrs: mustprogress nounwind uwtable
define hidden void @_ZN6Assimp13XFileExporterD2Ev(ptr noundef nonnull align 8 dereferenceable(560) %this) unnamed_addr #3 align 2 {
entry:
  store ptr getelementptr inbounds ({ [4 x ptr] }, ptr @_ZTVN6Assimp13XFileExporterE, i64 0, i32 0, i64 2), ptr %this, align 8
  %mSceneOwned = getelementptr inbounds i8, ptr %this, i64 488
  %0 = load i8, ptr %mSceneOwned, align 8
  %1 = and i8 %0, 1
  %tobool.not = icmp eq i8 %1, 0
  br i1 %tobool.not, label %if.end, label %if.then

if.then:                                          ; preds = %entry
  %mScene = getelementptr inbounds i8, ptr %this, i64 480
  %2 = load ptr, ptr %mScene, align 8
  %isnull = icmp eq ptr %2, null
  br i1 %isnull, label %if.end, label %delete.notnull

delete.notnull:                                   ; preds = %if.then
  tail call void @_ZN7aiSceneD1Ev(ptr noundef nonnull align 8 dereferenceable(1168) %2) #11
  tail call void @_ZdlPv(ptr noundef nonnull %2) #14
  br label %if.end

if.end:                                           ; preds = %if.then, %delete.notnull, %entry
  %endstr = getelementptr inbounds i8, ptr %this, i64 528
  tail call void @_ZNSt7__cxx1112basic_stringIcSt11char_traitsIcESaIcEED1Ev(ptr noundef nonnull align 8 dereferenceable(32) %endstr) #11
  %startstr = getelementptr inbounds i8, ptr %this, i64 496
  tail call void @_ZNSt7__cxx1112basic_stringIcSt11char_traitsIcESaIcEED1Ev(ptr noundef nonnull align 8 dereferenceable(32) %startstr) #11
  %mFile = getelementptr inbounds i8, ptr %this, i64 448
  tail call void @_ZNSt7__cxx1112basic_stringIcSt11char_traitsIcESaIcEED1Ev(ptr noundef nonnull align 8 dereferenceable(32) %mFile) #11
  %mPath = getelementptr inbounds i8, ptr %this, i64 416
  tail call void @_ZNSt7__cxx1112basic_stringIcSt11char_traitsIcESaIcEED1Ev(ptr noundef nonnull align 8 dereferenceable(32) %mPath) #11
  %mOutput = getelementptr inbounds i8, ptr %this, i64 8
  tail call void @_ZNSt7__cxx1118basic_stringstreamIcSt11char_traitsIcESaIcEED1Ev(ptr noundef nonnull align 8 dereferenceable(128) %mOutput) #11
  ret void
}